target datalayout = "e-m:e-p270:32:32-p271:32:32-p272:64:64-i64:64-i128:128-f80:128-n8:16:32:64-S128"
target triple = "x86_64-pc-linux-gnu"

%struct._zval_struct = type { %union._zend_value, %union.anon.9, %union.anon.12 }
%union._zend_value = type { i64 }
%union.anon.9 = type { i32 }
%union.anon.12 = type { i32 }
%struct._zend_refcounted_h = type { i32, %union.anon.0 }
%union.anon.0 = type { i32 }
%struct._zend_object_handlers = type { i32, ptr, ptr, ptr, ptr, ptr, ptr, ptr, ptr, ptr, ptr, ptr, ptr, ptr, ptr, ptr, ptr, ptr, ptr, ptr, ptr, ptr, ptr, ptr, ptr }
%struct._xmlNode = type { ptr, i32, ptr, ptr, ptr, ptr, ptr, ptr, ptr, ptr, ptr, ptr, ptr, ptr, i16, i16 }
%struct._dom_object = type { ptr, ptr, ptr, %struct._zend_object }
%struct._zend_object = type { %struct._zend_refcounted_h, i32, ptr, ptr, ptr, [1 x %struct._zval_struct] }
%struct._php_libxml_node_ptr = type { ptr, i32, ptr }

@dom_object_handlers = hidden global %struct._zend_object_handlers zeroinitializer, align 8
@dom_node_class_entry = global ptr null, align 8

; Function Attrs: nounwind uwtable
define ptr @dom_object_get_node(ptr noundef %0) #0 {
  %2 = alloca ptr, align 8
  %3 = alloca ptr, align 8
  store ptr %0, ptr %3, align 8
  %4 = load ptr, ptr %3, align 8
  %5 = icmp ne ptr %4, null
  br i1 %5, label %6, label %17

6:                                                ; preds = %1
  %7 = load ptr, ptr %3, align 8
  %8 = getelementptr inbounds %struct._dom_object, ptr %7, i32 0, i32 0
  %9 = load ptr, ptr %8, align 8
  %10 = icmp ne ptr %9, null
  br i1 %10, label %11, label %17

11:                                               ; preds = %6
  %12 = load ptr, ptr %3, align 8
  %13 = getelementptr inbounds %struct._dom_object, ptr %12, i32 0, i32 0
  %14 = load ptr, ptr %13, align 8
  %15 = getelementptr inbounds %struct._php_libxml_node_ptr, ptr %14, i32 0, i32 0
  %16 = load ptr, ptr %15, align 8
  store ptr %16, ptr %2, align 8
  br label %18

17:                                               ; preds = %6, %1
  store ptr null, ptr %2, align 8
  br label %18

18:                                               ; preds = %17, %11
  %19 = load ptr, ptr %2, align 8
  ret ptr %19
}

; Function Attrs: nounwind uwtable
define internal ptr @php_dom_obj_from_obj(ptr noundef %0) #0 {
  %2 = alloca ptr, align 8
  store ptr %0, ptr %2, align 8
  %3 = load ptr, ptr %2, align 8
  %4 = getelementptr inbounds i8, ptr %3, i64 -24
  ret ptr %4
}

; Function Attrs: nounwind uwtable
define internal ptr @dom_objects_store_clone_obj(ptr noundef %0) #0 {
  %2 = alloca ptr, align 8
  %3 = alloca ptr, align 8
  %4 = alloca ptr, align 8
  %5 = alloca ptr, align 8
  %6 = alloca ptr, align 8
  %7 = alloca ptr, align 8
  %8 = alloca ptr, align 8
  store ptr %0, ptr %4, align 8
  %9 = load ptr, ptr %4, align 8
  %10 = call ptr @php_dom_obj_from_obj(ptr noundef %9)
  store ptr %10, ptr %5, align 8
  %11 = load ptr, ptr %5, align 8
  %12 = getelementptr inbounds %struct._dom_object, ptr %11, i32 0, i32 3
  %13 = getelementptr inbounds %struct._zend_object, ptr %12, i32 0, i32 2
  %14 = load ptr, ptr %13, align 8
  %15 = call ptr @dom_objects_set_class(ptr noundef %14)
  store ptr %15, ptr %6, align 8
  %16 = load ptr, ptr %6, align 8
  %17 = getelementptr inbounds %struct._dom_object, ptr %16, i32 0, i32 3
  %18 = getelementptr inbounds %struct._zend_object, ptr %17, i32 0, i32 3
  store ptr @dom_object_handlers, ptr %18, align 8
  %19 = load ptr, ptr %5, align 8
  %20 = getelementptr inbounds %struct._dom_object, ptr %19, i32 0, i32 3
  %21 = getelementptr inbounds %struct._zend_object, ptr %20, i32 0, i32 2
  %22 = load ptr, ptr %21, align 8
  %23 = load ptr, ptr @dom_node_class_entry, align 8
  store ptr %22, ptr %2, align 8
  store ptr %23, ptr %3, align 8
  %24 = load ptr, ptr %2, align 8
  %25 = load ptr, ptr %3, align 8
  %26 = icmp eq ptr %24, %25
  br i1 %26, label %31, label %27

27:                                               ; preds = %1
  %28 = load ptr, ptr %2, align 8
  %29 = load ptr, ptr %3, align 8
  %30 = call zeroext i1 @instanceof_function_slow(ptr noundef %28, ptr noundef %29) #12
  br label %31

31:                                               ; preds = %27, %1
  %32 = phi i1 [ true, %1 ], [ %30, %27 ]
  br i1 %32, label %33, label %53

33:                                               ; preds = %31
  %34 = load ptr, ptr %5, align 8
  %35 = call ptr @dom_object_get_node(ptr noundef %34)
  store ptr %35, ptr %7, align 8
  %36 = load ptr, ptr %7, align 8
  %37 = icmp ne ptr %36, null
  br i1 %37, label %38, label %52

38:                                               ; preds = %33
  %39 = load ptr, ptr %7, align 8
  %40 = load ptr, ptr %7, align 8
  %41 = getelementptr inbounds %struct._xmlNode, ptr %40, i32 0, i32 8
  %42 = load ptr, ptr %41, align 8
  %43 = call ptr @xmlDocCopyNode(ptr noundef %39, ptr noundef %42, i32 noundef 1)
  store ptr %43, ptr %8, align 8
  %44 = load ptr, ptr %8, align 8
  %45 = icmp ne ptr %44, null
  br i1 %45, label %46, label %51

46:                                               ; preds = %38
  %47 = load ptr, ptr %5, align 8
  %48 = load ptr, ptr %7, align 8
  %49 = load ptr, ptr %6, align 8
  %50 = load ptr, ptr %8, align 8
  call void @dom_update_refcount_after_clone(ptr noundef %47, ptr noundef %48, ptr noundef %49, ptr noundef %50)
  br label %51

51:                                               ; preds = %46, %38
  br label %52

52:                                               ; preds = %51, %33
  br label %53

53:                                               ; preds = %52, %31
  %54 = load ptr, ptr %6, align 8
  %55 = getelementptr inbounds %struct._dom_object, ptr %54, i32 0, i32 3
  %56 = load ptr, ptr %5, align 8
  %57 = getelementptr inbounds %struct._dom_object, ptr %56, i32 0, i32 3
  call void @zend_objects_clone_members(ptr noundef %55, ptr noundef %57)
  %58 = load ptr, ptr %6, align 8
  %59 = getelementptr inbounds %struct._dom_object, ptr %58, i32 0, i32 3
  ret ptr %59
}