; Function Attrs: nounwind uwtable
define internal noundef nonnull ptr @dom_objects_store_clone_obj(ptr noundef %0) #1 {
  %2 = getelementptr inbounds i8, ptr %0, i64 -24
  %3 = getelementptr inbounds i8, ptr %0, i64 16
  %4 = load ptr, ptr %3, align 8
  %5 = tail call fastcc ptr @dom_objects_set_class(ptr noundef %4)
  %6 = getelementptr inbounds i8, ptr %5, i64 48
  store ptr @dom_object_handlers, ptr %6, align 8
  %7 = load ptr, ptr %3, align 8
  %8 = load ptr, ptr @dom_node_class_entry, align 8
  %9 = icmp eq ptr %7, %8
  br i1 %9, label %.critedge, label %10

10:                                               ; preds = %1
  %11 = tail call zeroext i1 @instanceof_function_slow(ptr noundef %7, ptr noundef %8) #16
  br i1 %11, label %.critedge, label %dom_object_get_node.exit.thread

.critedge:                                        ; preds = %1, %10
  %12 = load ptr, ptr %2, align 8
  %.not6.i = icmp eq ptr %12, null
  br i1 %.not6.i, label %dom_object_get_node.exit.thread, label %dom_object_get_node.exit

dom_object_get_node.exit:                         ; preds = %.critedge
  %13 = load ptr, ptr %12, align 8
  %.not = icmp eq ptr %13, null
  br i1 %.not, label %dom_object_get_node.exit.thread, label %14

14:                                               ; preds = %dom_object_get_node.exit
  %15 = getelementptr inbounds i8, ptr %13, i64 64
  %16 = load ptr, ptr %15, align 8
  %17 = tail call ptr @xmlDocCopyNode(ptr noundef nonnull %13, ptr noundef %16, i32 noundef 1) #16
  %.not23 = icmp eq ptr %17, null
  br i1 %.not23, label %dom_object_get_node.exit.thread, label %18

18:                                               ; preds = %14
  %.val = load ptr, ptr %15, align 8
  tail call fastcc void @dom_update_refcount_after_clone(ptr noundef nonnull %2, ptr %.val, ptr noundef nonnull %5, ptr noundef nonnull %17)
  br label %dom_object_get_node.exit.thread

dom_object_get_node.exit.thread:                  ; preds = %.critedge, %dom_object_get_node.exit, %18, %14, %10
  %19 = getelementptr inbounds i8, ptr %5, i64 24
  tail call void @zend_objects_clone_members(ptr noundef nonnull %19, ptr noundef nonnull %0) #16
  ret ptr %19
}